target datalayout = "e-m:e-p270:32:32-p271:32:32-p272:64:64-i64:64-i128:128-f80:128-n8:16:32:64-S128"
target triple = "x86_64-pc-linux-gnu"

%struct.prov_rc4_hmac_md5_ctx_st = type { %struct.prov_cipher_ctx_st, %union.anon.0, %struct.MD5state_st, %struct.MD5state_st, %struct.MD5state_st, i64, i64 }
%struct.prov_cipher_ctx_st = type { [16 x i8], [16 x i8], [16 x i8], ptr, %union.anon, i32, i64, i64, i64, i64, i32, i8, i32, ptr, i32, i64, i32, i64, i32, ptr, ptr, ptr }
%union.anon = type { ptr }
%union.anon.0 = type { double, [1024 x i8] }
%struct.MD5state_st = type { i32, i32, i32, i32, i32, i32, [16 x i32], i32 }

@.str = private unnamed_addr constant [67 x i8] c"../openssl/providers/implementations/ciphers/cipher_rc4_hmac_md5.c\00", align 1
@.str.1 = private unnamed_addr constant [7 x i8] c"keylen\00", align 1
@__func__.rc4_hmac_md5_get_ctx_params = private unnamed_addr constant [28 x i8] c"rc4_hmac_md5_get_ctx_params\00", align 1
@.str.2 = private unnamed_addr constant [6 x i8] c"ivlen\00", align 1
@.str.3 = private unnamed_addr constant [10 x i8] c"tlsaadpad\00", align 1

; Function Attrs: nounwind uwtable
define internal i32 @rc4_hmac_md5_get_ctx_params(ptr noundef %0, ptr noundef %1) #0 {
  %3 = alloca i32, align 4
  %4 = alloca ptr, align 8
  %5 = alloca ptr, align 8
  %6 = alloca ptr, align 8
  %7 = alloca ptr, align 8
  %8 = alloca i32, align 4
  store ptr %0, ptr %4, align 8, !tbaa !3
  store ptr %1, ptr %5, align 8, !tbaa !13
  call void @llvm.lifetime.start.p0(i64 8, ptr %6) #4
  %9 = load ptr, ptr %4, align 8, !tbaa !3
  store ptr %9, ptr %6, align 8, !tbaa !7
  call void @llvm.lifetime.start.p0(i64 8, ptr %7) #4
  %10 = load ptr, ptr %5, align 8, !tbaa !13
  %11 = call ptr @OSSL_PARAM_locate(ptr noundef %10, ptr noundef @.str.1)
  store ptr %11, ptr %7, align 8, !tbaa !13
  %12 = load ptr, ptr %7, align 8, !tbaa !13
  %13 = icmp ne ptr %12, null
  br i1 %13, label %14, label %23

14:                                               ; preds = %2
  %15 = load ptr, ptr %7, align 8, !tbaa !13
  %16 = load ptr, ptr %6, align 8, !tbaa !7
  %17 = getelementptr inbounds nuw %struct.prov_rc4_hmac_md5_ctx_st, ptr %16, i32 0, i32 0
  %18 = getelementptr inbounds nuw %struct.prov_cipher_ctx_st, ptr %17, i32 0, i32 6
  %19 = load i64, ptr %18, align 8, !tbaa !15
  %20 = call i32 @OSSL_PARAM_set_size_t(ptr noundef %15, i64 noundef %19)
  %21 = icmp ne i32 %20, 0
  br i1 %21, label %23, label %22

22:                                               ; preds = %14
  call void @ERR_new()
  call void @ERR_set_debug(ptr noundef @.str, i32 noundef 121, ptr noundef @__func__.rc4_hmac_md5_get_ctx_params)
  call void (i32, i32, ptr, ...) @ERR_set_error(i32 noundef 57, i32 noundef 104, ptr noundef null)
  store i32 0, ptr %3, align 4
  store i32 1, ptr %8, align 4
  br label %51

23:                                               ; preds = %14, %2
  %24 = load ptr, ptr %5, align 8, !tbaa !13
  %25 = call ptr @OSSL_PARAM_locate(ptr noundef %24, ptr noundef @.str.2)
  store ptr %25, ptr %7, align 8, !tbaa !13
  %26 = load ptr, ptr %7, align 8, !tbaa !13
  %27 = icmp ne ptr %26, null
  br i1 %27, label %28, label %37

28:                                               ; preds = %23
  %29 = load ptr, ptr %7, align 8, !tbaa !13
  %30 = load ptr, ptr %6, align 8, !tbaa !7
  %31 = getelementptr inbounds nuw %struct.prov_rc4_hmac_md5_ctx_st, ptr %30, i32 0, i32 0
  %32 = getelementptr inbounds nuw %struct.prov_cipher_ctx_st, ptr %31, i32 0, i32 7
  %33 = load i64, ptr %32, align 8, !tbaa !22
  %34 = call i32 @OSSL_PARAM_set_size_t(ptr noundef %29, i64 noundef %33)
  %35 = icmp ne i32 %34, 0
  br i1 %35, label %37, label %36

36:                                               ; preds = %28
  call void @ERR_new()
  call void @ERR_set_debug(ptr noundef @.str, i32 noundef 127, ptr noundef @__func__.rc4_hmac_md5_get_ctx_params)
  call void (i32, i32, ptr, ...) @ERR_set_error(i32 noundef 57, i32 noundef 104, ptr noundef null)
  store i32 0, ptr %3, align 4
  store i32 1, ptr %8, align 4
  br label %51

37:                                               ; preds = %28, %23
  %38 = load ptr, ptr %5, align 8, !tbaa !13
  %39 = call ptr @OSSL_PARAM_locate(ptr noundef %38, ptr noundef @.str.3)
  store ptr %39, ptr %7, align 8, !tbaa !13
  %40 = load ptr, ptr %7, align 8, !tbaa !13
  %41 = icmp ne ptr %40, null
  br i1 %41, label %42, label %50

42:                                               ; preds = %37
  %43 = load ptr, ptr %7, align 8, !tbaa !13
  %44 = load ptr, ptr %6, align 8, !tbaa !7
  %45 = getelementptr inbounds nuw %struct.prov_rc4_hmac_md5_ctx_st, ptr %44, i32 0, i32 6
  %46 = load i64, ptr %45, align 8, !tbaa !23
  %47 = call i32 @OSSL_PARAM_set_size_t(ptr noundef %43, i64 noundef %46)
  %48 = icmp ne i32 %47, 0
  br i1 %48, label %50, label %49

49:                                               ; preds = %42
  call void @ERR_new()
  call void @ERR_set_debug(ptr noundef @.str, i32 noundef 132, ptr noundef @__func__.rc4_hmac_md5_get_ctx_params)
  call void (i32, i32, ptr, ...) @ERR_set_error(i32 noundef 57, i32 noundef 104, ptr noundef null)
  store i32 0, ptr %3, align 4
  store i32 1, ptr %8, align 4
  br label %51

50:                                               ; preds = %42, %37
  store i32 1, ptr %3, align 4
  store i32 1, ptr %8, align 4
  br label %51

51:                                               ; preds = %50, %49, %36, %22
  call void @llvm.lifetime.end.p0(i64 8, ptr %7) #4
  call void @llvm.lifetime.end.p0(i64 8, ptr %6) #4
  %52 = load i32, ptr %3, align 4
  ret i32 %52
}