; Function Attrs: nounwind uwtable
define internal range(i32 0, 2) i32 @rc4_hmac_md5_get_ctx_params(ptr noundef readonly captures(none) %0, ptr noundef %1) #0 {
  %3 = tail call ptr @OSSL_PARAM_locate(ptr noundef %1, ptr noundef nonnull @.str.1) #4
  %.not = icmp eq ptr %3, null
  br i1 %.not, label %8, label %4

4:                                                ; preds = %2
  %5 = getelementptr inbounds nuw i8, ptr %0, i64 72
  %6 = load i64, ptr %5, align 8, !tbaa !3
  %7 = tail call i32 @OSSL_PARAM_set_size_t(ptr noundef nonnull %3, i64 noundef %6) #4
  %.not16 = icmp eq i32 %7, 0
  br i1 %.not16, label %.sink.split, label %8

8:                                                ; preds = %4, %2
  %9 = tail call ptr @OSSL_PARAM_locate(ptr noundef %1, ptr noundef nonnull @.str.2) #4
  %.not17 = icmp eq ptr %9, null
  br i1 %.not17, label %14, label %10

10:                                               ; preds = %8
  %11 = getelementptr inbounds nuw i8, ptr %0, i64 80
  %12 = load i64, ptr %11, align 8, !tbaa !15
  %13 = tail call i32 @OSSL_PARAM_set_size_t(ptr noundef nonnull %9, i64 noundef %12) #4
  %.not18 = icmp eq i32 %13, 0
  br i1 %.not18, label %.sink.split, label %14

14:                                               ; preds = %10, %8
  %15 = tail call ptr @OSSL_PARAM_locate(ptr noundef %1, ptr noundef nonnull @.str.3) #4
  %.not19 = icmp eq ptr %15, null
  br i1 %.not19, label %20, label %16

16:                                               ; preds = %14
  %17 = getelementptr inbounds nuw i8, ptr %0, i64 1512
  %18 = load i64, ptr %17, align 8, !tbaa !16
  %19 = tail call i32 @OSSL_PARAM_set_size_t(ptr noundef nonnull %15, i64 noundef %18) #4
  %.not20 = icmp eq i32 %19, 0
  br i1 %.not20, label %.sink.split, label %20

.sink.split:                                      ; preds = %16, %10, %4
  %.sink = phi i32 [ 121, %4 ], [ 127, %10 ], [ 132, %16 ]
  tail call void @ERR_new() #4
  tail call void @ERR_set_debug(ptr noundef nonnull @.str, i32 noundef %.sink, ptr noundef nonnull @__func__.rc4_hmac_md5_get_ctx_params) #4
  tail call void (i32, i32, ptr, ...) @ERR_set_error(i32 noundef 57, i32 noundef 104, ptr noundef null) #4
  br label %20

20:                                               ; preds = %.sink.split, %14, %16
  %.0 = phi i32 [ 1, %16 ], [ 1, %14 ], [ 0, %.sink.split ]
  ret i32 %.0
}